target datalayout = "e-m:e-p270:32:32-p271:32:32-p272:64:64-i64:64-i128:128-f80:128-n8:16:32:64-S128"
target triple = "x86_64-pc-linux-gnu"

%struct.Dar_Lib_t_ = type { ptr, i32, i32, [222 x i32], [222 x ptr], ptr, i32, ptr, [222 x ptr], ptr, [222 x ptr], ptr, [222 x ptr], [222 x i32], [222 x ptr], ptr, i32, i32, i32, [222 x i32], [222 x ptr], ptr, i32, [222 x i32], [222 x ptr], ptr, i32, ptr, i32, ptr, ptr, ptr, ptr, ptr }
%struct.Dar_LibObj_t_ = type { i64 }
%struct.Vec_Int_t_ = type { i32, i32, ptr }
%struct.Dar_LibDat_t_ = type { %union.anon, i32, i32, float, i8, [3 x i8] }
%union.anon = type { ptr }
%struct.Gia_Man_t_ = type { ptr, ptr, i32, i32, i32, i32, ptr, ptr, i32, i32, i32, ptr, ptr, %struct.Vec_Int_t_, %struct.Vec_Int_t_, i32, i32, i32, %struct.Vec_Int_t_, ptr, ptr, ptr, i32, i32, i32, i32, ptr, ptr, ptr, ptr, ptr, i32, i32, ptr, i32, ptr, ptr, ptr, ptr, ptr, ptr, ptr, ptr, ptr, ptr, ptr, ptr, ptr, ptr, ptr, ptr, ptr, ptr, %struct.Vec_Int_t_, %struct.Vec_Int_t_, ptr, ptr, ptr, ptr, ptr, ptr, ptr, ptr, ptr, ptr, ptr, ptr, ptr, ptr, ptr, ptr, ptr, ptr, ptr, ptr, ptr, i32, float, float, ptr, ptr, i32, ptr, ptr, ptr, ptr, ptr, ptr, ptr, ptr, ptr, ptr, ptr, ptr, ptr, ptr, ptr, i64, i64, ptr, ptr, i32, i32, i32, i32, i32, i32, i32, i32, i32, i32, i32, i32, ptr, ptr, ptr, ptr, ptr, ptr, ptr, ptr, i32, i32, i32, ptr, i32, i32, ptr, ptr, ptr, ptr, ptr, ptr, i32, i32, ptr, %struct.Vec_Int_t_, %struct.Vec_Int_t_, %struct.Vec_Int_t_, ptr, ptr, ptr }
%struct.Gia_Obj_t_ = type <{ i64, i32 }>

@s_DarLib = internal global ptr null, align 8

; Function Attrs: nounwind uwtable
define internal i32 @Vec_IntEntry(ptr noundef %0, i32 noundef %1) #0 {
  %3 = alloca ptr, align 8
  %4 = alloca i32, align 4
  store ptr %0, ptr %3, align 8
  store i32 %1, ptr %4, align 4
  %5 = load ptr, ptr %3, align 8
  %6 = getelementptr inbounds %struct.Vec_Int_t_, ptr %5, i32 0, i32 2
  %7 = load ptr, ptr %6, align 8
  %8 = load i32, ptr %4, align 4
  %9 = sext i32 %8 to i64
  %10 = getelementptr inbounds i32, ptr %7, i64 %9
  %11 = load i32, ptr %10, align 4
  ret i32 %11
}

; Function Attrs: nounwind uwtable
define internal i32 @Vec_IntGetEntry(ptr noundef %0, i32 noundef %1) #0 {
  %3 = alloca ptr, align 8
  %4 = alloca i32, align 4
  store ptr %0, ptr %3, align 8
  store i32 %1, ptr %4, align 4
  %5 = load ptr, ptr %3, align 8
  %6 = load i32, ptr %4, align 4
  %7 = add nsw i32 %6, 1
  call void @Vec_IntFillExtra(ptr noundef %5, i32 noundef %7, i32 noundef 0)
  %8 = load ptr, ptr %3, align 8
  %9 = load i32, ptr %4, align 4
  %10 = call i32 @Vec_IntEntry(ptr noundef %8, i32 noundef %9)
  ret i32 %10
}

; Function Attrs: nounwind uwtable
define internal i32 @Gia_ObjLevelId(ptr noundef %0, i32 noundef %1) #0 {
  %3 = alloca ptr, align 8
  %4 = alloca i32, align 4
  store ptr %0, ptr %3, align 8
  store i32 %1, ptr %4, align 4
  %5 = load ptr, ptr %3, align 8
  %6 = getelementptr inbounds %struct.Gia_Man_t_, ptr %5, i32 0, i32 21
  %7 = load ptr, ptr %6, align 8
  %8 = load i32, ptr %4, align 4
  %9 = call i32 @Vec_IntGetEntry(ptr noundef %7, i32 noundef %8)
  ret i32 %9
}

; Function Attrs: nounwind uwtable
define internal i32 @Gia_ObjId(ptr noundef %0, ptr noundef %1) #0 {
  %3 = alloca ptr, align 8
  %4 = alloca ptr, align 8
  store ptr %0, ptr %3, align 8
  store ptr %1, ptr %4, align 8
  %5 = load ptr, ptr %4, align 8
  %6 = load ptr, ptr %3, align 8
  %7 = getelementptr inbounds %struct.Gia_Man_t_, ptr %6, i32 0, i32 6
  %8 = load ptr, ptr %7, align 8
  %9 = ptrtoint ptr %5 to i64
  %10 = ptrtoint ptr %8 to i64
  %11 = sub i64 %9, %10
  %12 = sdiv exact i64 %11, 12
  %13 = trunc i64 %12 to i32
  ret i32 %13
}

; Function Attrs: nounwind uwtable
define internal ptr @Gia_NotCond(ptr noundef %0, i32 noundef %1) #0 {
  %3 = alloca ptr, align 8
  %4 = alloca i32, align 4
  store ptr %0, ptr %3, align 8
  store i32 %1, ptr %4, align 4
  %5 = load ptr, ptr %3, align 8
  %6 = ptrtoint ptr %5 to i64
  %7 = load i32, ptr %4, align 4
  %8 = sext i32 %7 to i64
  %9 = xor i64 %6, %8
  %10 = inttoptr i64 %9 to ptr
  ret ptr %10
}

; Function Attrs: nounwind uwtable
define internal i32 @Abc_LitIsCompl(i32 noundef %0) #0 {
  %2 = alloca i32, align 4
  store i32 %0, ptr %2, align 4
  %3 = load i32, ptr %2, align 4
  %4 = and i32 %3, 1
  ret i32 %4
}

; Function Attrs: nounwind uwtable
define internal ptr @Gia_ManObj(ptr noundef %0, i32 noundef %1) #0 {
  %3 = alloca ptr, align 8
  %4 = alloca i32, align 4
  store ptr %0, ptr %3, align 8
  store i32 %1, ptr %4, align 4
  %5 = load ptr, ptr %3, align 8
  %6 = getelementptr inbounds %struct.Gia_Man_t_, ptr %5, i32 0, i32 6
  %7 = load ptr, ptr %6, align 8
  %8 = load i32, ptr %4, align 4
  %9 = sext i32 %8 to i64
  %10 = getelementptr inbounds %struct.Gia_Obj_t_, ptr %7, i64 %9
  ret ptr %10
}

; Function Attrs: nounwind uwtable
define internal i32 @Abc_Lit2Var(i32 noundef %0) #0 {
  %2 = alloca i32, align 4
  store i32 %0, ptr %2, align 4
  %3 = load i32, ptr %2, align 4
  %4 = ashr i32 %3, 1
  ret i32 %4
}

; Function Attrs: nounwind uwtable
define internal i32 @Gia_ObjLevel(ptr noundef %0, ptr noundef %1) #0 {
  %3 = alloca ptr, align 8
  %4 = alloca ptr, align 8
  store ptr %0, ptr %3, align 8
  store ptr %1, ptr %4, align 8
  %5 = load ptr, ptr %3, align 8
  %6 = load ptr, ptr %3, align 8
  %7 = load ptr, ptr %4, align 8
  %8 = call i32 @Gia_ObjId(ptr noundef %6, ptr noundef %7)
  %9 = call i32 @Gia_ObjLevelId(ptr noundef %5, i32 noundef %8)
  ret i32 %9
}

; Function Attrs: nounwind uwtable
define internal ptr @Gia_Regular(ptr noundef %0) #0 {
  %2 = alloca ptr, align 8
  store ptr %0, ptr %2, align 8
  %3 = load ptr, ptr %2, align 8
  %4 = ptrtoint ptr %3 to i64
  %5 = and i64 %4, -2
  %6 = inttoptr i64 %5 to ptr
  ret ptr %6
}

; Function Attrs: nounwind uwtable
define internal ptr @Gia_ObjFromLit(ptr noundef %0, i32 noundef %1) #0 {
  %3 = alloca ptr, align 8
  %4 = alloca i32, align 4
  store ptr %0, ptr %3, align 8
  store i32 %1, ptr %4, align 4
  %5 = load ptr, ptr %3, align 8
  %6 = load i32, ptr %4, align 4
  %7 = call i32 @Abc_Lit2Var(i32 noundef %6)
  %8 = call ptr @Gia_ManObj(ptr noundef %5, i32 noundef %7)
  %9 = load i32, ptr %4, align 4
  %10 = call i32 @Abc_LitIsCompl(i32 noundef %9)
  %11 = call ptr @Gia_NotCond(ptr noundef %8, i32 noundef %10)
  ret ptr %11
}

; Function Attrs: nounwind uwtable
define internal i32 @Abc_LitNot(i32 noundef %0) #0 {
  %2 = alloca i32, align 4
  store i32 %0, ptr %2, align 4
  %3 = load i32, ptr %2, align 4
  %4 = xor i32 %3, 1
  ret i32 %4
}

; Function Attrs: nounwind uwtable
define internal i32 @Abc_LitNotCond(i32 noundef %0, i32 noundef %1) #0 {
  %3 = alloca i32, align 4
  %4 = alloca i32, align 4
  store i32 %0, ptr %3, align 4
  store i32 %1, ptr %4, align 4
  %5 = load i32, ptr %3, align 4
  %6 = load i32, ptr %4, align 4
  %7 = icmp sgt i32 %6, 0
  %8 = zext i1 %7 to i32
  %9 = xor i32 %5, %8
  ret i32 %9
}

; Function Attrs: nounwind uwtable
define internal i32 @Abc_MaxInt(i32 noundef %0, i32 noundef %1) #0 {
  %3 = alloca i32, align 4
  %4 = alloca i32, align 4
  store i32 %0, ptr %3, align 4
  store i32 %1, ptr %4, align 4
  %5 = load i32, ptr %3, align 4
  %6 = load i32, ptr %4, align 4
  %7 = icmp sgt i32 %5, %6
  br i1 %7, label %8, label %10

8:                                                ; preds = %2
  %9 = load i32, ptr %3, align 4
  br label %12

10:                                               ; preds = %2
  %11 = load i32, ptr %4, align 4
  br label %12

12:                                               ; preds = %10, %8
  %13 = phi i32 [ %9, %8 ], [ %11, %10 ]
  ret i32 %13
}

; Function Attrs: nounwind uwtable
define internal ptr @Dar_LibObj(ptr noundef %0, i32 noundef %1) #0 {
  %3 = alloca ptr, align 8
  %4 = alloca i32, align 4
  store ptr %0, ptr %3, align 8
  store i32 %1, ptr %4, align 4
  %5 = load ptr, ptr %3, align 8
  %6 = getelementptr inbounds %struct.Dar_Lib_t_, ptr %5, i32 0, i32 0
  %7 = load ptr, ptr %6, align 8
  %8 = load i32, ptr %4, align 4
  %9 = sext i32 %8 to i64
  %10 = getelementptr inbounds %struct.Dar_LibObj_t_, ptr %7, i64 %9
  ret ptr %10
}

; Function Attrs: nounwind uwtable
define void @Dar2_LibEvalAssignNums(ptr noundef %0, i32 noundef %1) #0 {
  %3 = alloca ptr, align 8
  %4 = alloca i32, align 4
  %5 = alloca ptr, align 8
  %6 = alloca ptr, align 8
  %7 = alloca ptr, align 8
  %8 = alloca ptr, align 8
  %9 = alloca i32, align 4
  %10 = alloca i32, align 4
  %11 = alloca i32, align 4
  %12 = alloca i32, align 4
  store ptr %0, ptr %3, align 8
  store i32 %1, ptr %4, align 4
  store i32 0, ptr %11, align 4
  br label %13

13:                                               ; preds = %187, %2
  %14 = load i32, ptr %11, align 4
  %15 = load ptr, ptr @s_DarLib, align 8
  %16 = getelementptr inbounds %struct.Dar_Lib_t_, ptr %15, i32 0, i32 19
  %17 = load i32, ptr %4, align 4
  %18 = sext i32 %17 to i64
  %19 = getelementptr inbounds [222 x i32], ptr %16, i64 0, i64 %18
  %20 = load i32, ptr %19, align 4
  %21 = icmp slt i32 %14, %20
  br i1 %21, label %22, label %190

22:                                               ; preds = %13
  %23 = load ptr, ptr @s_DarLib, align 8
  %24 = load ptr, ptr @s_DarLib, align 8
  %25 = getelementptr inbounds %struct.Dar_Lib_t_, ptr %24, i32 0, i32 20
  %26 = load i32, ptr %4, align 4
  %27 = sext i32 %26 to i64
  %28 = getelementptr inbounds [222 x ptr], ptr %25, i64 0, i64 %27
  %29 = load ptr, ptr %28, align 8
  %30 = load i32, ptr %11, align 4
  %31 = sext i32 %30 to i64
  %32 = getelementptr inbounds i32, ptr %29, i64 %31
  %33 = load i32, ptr %32, align 4
  %34 = call ptr @Dar_LibObj(ptr noundef %23, i32 noundef %33)
  store ptr %34, ptr %5, align 8
  %35 = load i32, ptr %11, align 4
  %36 = add nsw i32 4, %35
  %37 = load ptr, ptr %5, align 8
  %38 = zext i32 %36 to i64
  %39 = load i64, ptr %37, align 4
  %40 = and i64 %38, 268435455
  %41 = shl i64 %40, 36
  %42 = and i64 %39, 68719476735
  %43 = or i64 %42, %41
  store i64 %43, ptr %37, align 4
  %44 = load ptr, ptr @s_DarLib, align 8
  %45 = getelementptr inbounds %struct.Dar_Lib_t_, ptr %44, i32 0, i32 27
  %46 = load ptr, ptr %45, align 8
  %47 = load ptr, ptr %5, align 8
  %48 = load i64, ptr %47, align 4
  %49 = lshr i64 %48, 36
  %50 = trunc i64 %49 to i32
  %51 = sext i32 %50 to i64
  %52 = getelementptr inbounds %struct.Dar_LibDat_t_, ptr %46, i64 %51
  store ptr %52, ptr %6, align 8
  %53 = load ptr, ptr %6, align 8
  %54 = getelementptr inbounds %struct.Dar_LibDat_t_, ptr %53, i32 0, i32 4
  store i8 0, ptr %54, align 4
  %55 = load ptr, ptr %6, align 8
  %56 = getelementptr inbounds %struct.Dar_LibDat_t_, ptr %55, i32 0, i32 0
  store i32 -1, ptr %56, align 8
  %57 = load ptr, ptr %6, align 8
  %58 = getelementptr inbounds %struct.Dar_LibDat_t_, ptr %57, i32 0, i32 2
  store i32 65535, ptr %58, align 4
  %59 = load ptr, ptr @s_DarLib, align 8
  %60 = getelementptr inbounds %struct.Dar_Lib_t_, ptr %59, i32 0, i32 27
  %61 = load ptr, ptr %60, align 8
  %62 = load ptr, ptr @s_DarLib, align 8
  %63 = load ptr, ptr %5, align 8
  %64 = load i64, ptr %63, align 4
  %65 = and i64 %64, 65535
  %66 = trunc i64 %65 to i32
  %67 = call ptr @Dar_LibObj(ptr noundef %62, i32 noundef %66)
  %68 = load i64, ptr %67, align 4
  %69 = lshr i64 %68, 36
  %70 = trunc i64 %69 to i32
  %71 = sext i32 %70 to i64
  %72 = getelementptr inbounds %struct.Dar_LibDat_t_, ptr %61, i64 %71
  store ptr %72, ptr %7, align 8
  %73 = load ptr, ptr @s_DarLib, align 8
  %74 = getelementptr inbounds %struct.Dar_Lib_t_, ptr %73, i32 0, i32 27
  %75 = load ptr, ptr %74, align 8
  %76 = load ptr, ptr @s_DarLib, align 8
  %77 = load ptr, ptr %5, align 8
  %78 = load i64, ptr %77, align 4
  %79 = lshr i64 %78, 16
  %80 = and i64 %79, 65535
  %81 = trunc i64 %80 to i32
  %82 = call ptr @Dar_LibObj(ptr noundef %76, i32 noundef %81)
  %83 = load i64, ptr %82, align 4
  %84 = lshr i64 %83, 36
  %85 = trunc i64 %84 to i32
  %86 = sext i32 %85 to i64
  %87 = getelementptr inbounds %struct.Dar_LibDat_t_, ptr %75, i64 %86
  store ptr %87, ptr %8, align 8
  %88 = load ptr, ptr %7, align 8
  %89 = getelementptr inbounds %struct.Dar_LibDat_t_, ptr %88, i32 0, i32 1
  %90 = load i32, ptr %89, align 8
  %91 = load ptr, ptr %8, align 8
  %92 = getelementptr inbounds %struct.Dar_LibDat_t_, ptr %91, i32 0, i32 1
  %93 = load i32, ptr %92, align 8
  %94 = call i32 @Abc_MaxInt(i32 noundef %90, i32 noundef %93)
  %95 = add nsw i32 1, %94
  %96 = load ptr, ptr %6, align 8
  %97 = getelementptr inbounds %struct.Dar_LibDat_t_, ptr %96, i32 0, i32 1
  store i32 %95, ptr %97, align 8
  %98 = load ptr, ptr %7, align 8
  %99 = getelementptr inbounds %struct.Dar_LibDat_t_, ptr %98, i32 0, i32 0
  %100 = load i32, ptr %99, align 8
  %101 = icmp eq i32 %100, -1
  br i1 %101, label %107, label %102

102:                                              ; preds = %22
  %103 = load ptr, ptr %8, align 8
  %104 = getelementptr inbounds %struct.Dar_LibDat_t_, ptr %103, i32 0, i32 0
  %105 = load i32, ptr %104, align 8
  %106 = icmp eq i32 %105, -1
  br i1 %106, label %107, label %108

107:                                              ; preds = %102, %22
  br label %187

108:                                              ; preds = %102
  %109 = load ptr, ptr %7, align 8
  %110 = getelementptr inbounds %struct.Dar_LibDat_t_, ptr %109, i32 0, i32 0
  %111 = load i32, ptr %110, align 8
  %112 = load ptr, ptr %5, align 8
  %113 = load i64, ptr %112, align 4
  %114 = lshr i64 %113, 32
  %115 = and i64 %114, 1
  %116 = trunc i64 %115 to i32
  %117 = call i32 @Abc_LitNotCond(i32 noundef %111, i32 noundef %116)
  store i32 %117, ptr %9, align 4
  %118 = load ptr, ptr %8, align 8
  %119 = getelementptr inbounds %struct.Dar_LibDat_t_, ptr %118, i32 0, i32 0
  %120 = load i32, ptr %119, align 8
  %121 = load ptr, ptr %5, align 8
  %122 = load i64, ptr %121, align 4
  %123 = lshr i64 %122, 33
  %124 = and i64 %123, 1
  %125 = trunc i64 %124 to i32
  %126 = call i32 @Abc_LitNotCond(i32 noundef %120, i32 noundef %125)
  store i32 %126, ptr %10, align 4
  %127 = load i32, ptr %9, align 4
  %128 = icmp eq i32 %127, 0
  br i1 %128, label %137, label %129

129:                                              ; preds = %108
  %130 = load i32, ptr %10, align 4
  %131 = icmp eq i32 %130, 0
  br i1 %131, label %137, label %132

132:                                              ; preds = %129
  %133 = load i32, ptr %9, align 4
  %134 = load i32, ptr %10, align 4
  %135 = call i32 @Abc_LitNot(i32 noundef %134)
  %136 = icmp eq i32 %133, %135
  br i1 %136, label %137, label %138

137:                                              ; preds = %132, %129, %108
  store i32 0, ptr %12, align 4
  br label %167

138:                                              ; preds = %132
  %139 = load i32, ptr %9, align 4
  %140 = icmp eq i32 %139, 1
  br i1 %140, label %145, label %141

141:                                              ; preds = %138
  %142 = load i32, ptr %9, align 4
  %143 = load i32, ptr %10, align 4
  %144 = icmp eq i32 %142, %143
  br i1 %144, label %145, label %147

145:                                              ; preds = %141, %138
  %146 = load i32, ptr %10, align 4
  store i32 %146, ptr %12, align 4
  br label %166

147:                                              ; preds = %141
  %148 = load i32, ptr %10, align 4
  %149 = icmp eq i32 %148, 1
  br i1 %149, label %150, label %152

150:                                              ; preds = %147
  %151 = load i32, ptr %9, align 4
  store i32 %151, ptr %12, align 4
  br label %165

152:                                              ; preds = %147
  %153 = load ptr, ptr %3, align 8
  %154 = load ptr, ptr %3, align 8
  %155 = load i32, ptr %9, align 4
  %156 = call ptr @Gia_ObjFromLit(ptr noundef %154, i32 noundef %155)
  %157 = load ptr, ptr %3, align 8
  %158 = load i32, ptr %10, align 4
  %159 = call ptr @Gia_ObjFromLit(ptr noundef %157, i32 noundef %158)
  %160 = call i32 @Gia_ManHashLookup(ptr noundef %153, ptr noundef %156, ptr noundef %159)
  store i32 %160, ptr %12, align 4
  %161 = load i32, ptr %12, align 4
  %162 = icmp eq i32 %161, 0
  br i1 %162, label %163, label %164

163:                                              ; preds = %152
  store i32 -1, ptr %12, align 4
  br label %164

164:                                              ; preds = %163, %152
  br label %165

165:                                              ; preds = %164, %150
  br label %166

166:                                              ; preds = %165, %145
  br label %167

167:                                              ; preds = %166, %137
  %168 = load i32, ptr %12, align 4
  %169 = load ptr, ptr %6, align 8
  %170 = getelementptr inbounds %struct.Dar_LibDat_t_, ptr %169, i32 0, i32 0
  store i32 %168, ptr %170, align 8
  %171 = load ptr, ptr %6, align 8
  %172 = getelementptr inbounds %struct.Dar_LibDat_t_, ptr %171, i32 0, i32 0
  %173 = load i32, ptr %172, align 8
  %174 = icmp sge i32 %173, 0
  br i1 %174, label %175, label %186

175:                                              ; preds = %167
  %176 = load ptr, ptr %3, align 8
  %177 = load ptr, ptr %3, align 8
  %178 = load ptr, ptr %6, align 8
  %179 = getelementptr inbounds %struct.Dar_LibDat_t_, ptr %178, i32 0, i32 0
  %180 = load i32, ptr %179, align 8
  %181 = call ptr @Gia_ObjFromLit(ptr noundef %177, i32 noundef %180)
  %182 = call ptr @Gia_Regular(ptr noundef %181)
  %183 = call i32 @Gia_ObjLevel(ptr noundef %176, ptr noundef %182)
  %184 = load ptr, ptr %6, align 8
  %185 = getelementptr inbounds %struct.Dar_LibDat_t_, ptr %184, i32 0, i32 1
  store i32 %183, ptr %185, align 8
  br label %186

186:                                              ; preds = %175, %167
  br label %187

187:                                              ; preds = %186, %107
  %188 = load i32, ptr %11, align 4
  %189 = add nsw i32 %188, 1
  store i32 %189, ptr %11, align 4
  br label %13, !llvm.loop !51

190:                                              ; preds = %13
  ret void
}