; Function Attrs: nounwind uwtable
define void @Dar2_LibEvalAssignNums(ptr noundef %0, i32 noundef %1) local_unnamed_addr #0 {
  %3 = sext i32 %1 to i64
  %4 = load ptr, ptr @s_DarLib, align 8
  %5 = getelementptr inbounds nuw i8, ptr %4, i64 10732
  %6 = getelementptr inbounds [222 x i32], ptr %5, i64 0, i64 %3
  %7 = load i32, ptr %6, align 4
  %8 = icmp sgt i32 %7, 0
  br i1 %8, label %.lr.ph, label %._crit_edge

.lr.ph:                                           ; preds = %2
  %9 = getelementptr i8, ptr %0, i64 32
  %10 = getelementptr i8, ptr %0, i64 160
  br label %11

11:                                               ; preds = %.lr.ph, %111
  %indvars.iv = phi i64 [ 0, %.lr.ph ], [ %indvars.iv.next, %111 ]
  %12 = phi ptr [ %4, %.lr.ph ], [ %112, %111 ]
  %13 = getelementptr inbounds nuw i8, ptr %12, i64 11624
  %14 = getelementptr inbounds [222 x ptr], ptr %13, i64 0, i64 %3
  %15 = load ptr, ptr %14, align 8
  %16 = getelementptr inbounds nuw i32, ptr %15, i64 %indvars.iv
  %17 = load i32, ptr %16, align 4
  %.val51 = load ptr, ptr %12, align 8
  %18 = sext i32 %17 to i64
  %19 = getelementptr inbounds %struct.Dar_LibObj_t_, ptr %.val51, i64 %18
  %20 = load i64, ptr %19, align 4
  %21 = add nuw nsw i64 %indvars.iv, 4
  %22 = and i64 %21, 268435455
  %23 = shl nuw i64 %22, 36
  %24 = and i64 %20, 68719476735
  %25 = or disjoint i64 %24, %23
  store i64 %25, ptr %19, align 4
  %26 = getelementptr inbounds nuw i8, ptr %12, i64 16096
  %27 = load ptr, ptr %26, align 8
  %28 = getelementptr inbounds nuw %struct.Dar_LibDat_t_, ptr %27, i64 %22
  %29 = getelementptr inbounds nuw i8, ptr %28, i64 20
  store i8 0, ptr %29, align 4
  store i32 -1, ptr %28, align 8
  %30 = getelementptr inbounds nuw i8, ptr %28, i64 12
  store i32 65535, ptr %30, align 4
  %31 = load ptr, ptr %26, align 8
  %32 = load i64, ptr %19, align 4
  %33 = and i64 %32, 65535
  %.val50 = load ptr, ptr %12, align 8
  %34 = getelementptr inbounds nuw %struct.Dar_LibObj_t_, ptr %.val50, i64 %33
  %35 = load i64, ptr %34, align 4
  %36 = lshr i64 %35, 36
  %37 = getelementptr inbounds nuw %struct.Dar_LibDat_t_, ptr %31, i64 %36
  %38 = lshr i64 %32, 16
  %39 = and i64 %38, 65535
  %40 = getelementptr inbounds nuw %struct.Dar_LibObj_t_, ptr %.val50, i64 %39
  %41 = load i64, ptr %40, align 4
  %42 = lshr i64 %41, 36
  %43 = getelementptr inbounds nuw %struct.Dar_LibDat_t_, ptr %31, i64 %42
  %44 = getelementptr inbounds nuw i8, ptr %37, i64 8
  %45 = load i32, ptr %44, align 8
  %46 = getelementptr inbounds nuw i8, ptr %43, i64 8
  %47 = load i32, ptr %46, align 8
  %48 = tail call noundef i32 @llvm.smax.i32(i32 %45, i32 %47)
  %49 = add nsw i32 %48, 1
  %50 = getelementptr inbounds nuw i8, ptr %28, i64 8
  store i32 %49, ptr %50, align 8
  %51 = load i32, ptr %37, align 8
  %52 = icmp eq i32 %51, -1
  br i1 %52, label %111, label %53

53:                                               ; preds = %11
  %54 = load i32, ptr %43, align 8
  %55 = icmp eq i32 %54, -1
  br i1 %55, label %111, label %56

56:                                               ; preds = %53
  %57 = load i64, ptr %19, align 4
  %58 = lshr i64 %57, 32
  %59 = trunc nuw i64 %58 to i32
  %60 = and i32 %59, 1
  %61 = xor i32 %60, %51
  %62 = lshr i64 %57, 33
  %63 = trunc nuw nsw i64 %62 to i32
  %64 = and i32 %63, 1
  %65 = xor i32 %64, %54
  %66 = icmp eq i32 %60, %51
  %67 = icmp eq i32 %64, %54
  %or.cond = select i1 %66, i1 true, i1 %67
  %68 = xor i32 %65, %61
  %69 = icmp eq i32 %68, 1
  %or.cond62 = select i1 %or.cond, i1 true, i1 %69
  br i1 %or.cond62, label %.thread, label %70

70:                                               ; preds = %56
  %71 = icmp eq i32 %61, 1
  %72 = icmp eq i32 %61, %65
  %or.cond49 = select i1 %71, i1 true, i1 %72
  br i1 %or.cond49, label %94, label %73

73:                                               ; preds = %70
  %74 = icmp eq i32 %65, 1
  br i1 %74, label %94, label %75

75:                                               ; preds = %73
  %.val54 = load ptr, ptr %9, align 8
  %76 = ashr i32 %51, 1
  %77 = sext i32 %76 to i64
  %78 = getelementptr inbounds %struct.Gia_Obj_t_, ptr %.val54, i64 %77
  %79 = and i32 %61, 1
  %80 = ptrtoint ptr %78 to i64
  %81 = zext nneg i32 %79 to i64
  %82 = xor i64 %80, %81
  %83 = inttoptr i64 %82 to ptr
  %84 = ashr i32 %54, 1
  %85 = sext i32 %84 to i64
  %86 = getelementptr inbounds %struct.Gia_Obj_t_, ptr %.val54, i64 %85
  %87 = and i32 %65, 1
  %88 = ptrtoint ptr %86 to i64
  %89 = zext nneg i32 %87 to i64
  %90 = xor i64 %88, %89
  %91 = inttoptr i64 %90 to ptr
  %92 = tail call i32 @Gia_ManHashLookup(ptr noundef %0, ptr noundef %83, ptr noundef %91) #20
  %93 = icmp eq i32 %92, 0
  br i1 %93, label %.thread59, label %94

.thread59:                                        ; preds = %75
  store i32 -1, ptr %28, align 8
  br label %111

.thread:                                          ; preds = %56
  store i32 0, ptr %28, align 8
  br label %96

94:                                               ; preds = %75, %73, %70
  %.0 = phi i32 [ %92, %75 ], [ %65, %70 ], [ %61, %73 ]
  store i32 %.0, ptr %28, align 8
  %95 = icmp sgt i32 %.0, -1
  br i1 %95, label %96, label %111

96:                                               ; preds = %.thread, %94
  %.058 = phi i32 [ 0, %.thread ], [ %.0, %94 ]
  %.val52 = load ptr, ptr %9, align 8
  %97 = lshr i32 %.058, 1
  %98 = zext nneg i32 %97 to i64
  %99 = getelementptr inbounds nuw %struct.Gia_Obj_t_, ptr %.val52, i64 %98
  %100 = ptrtoint ptr %99 to i64
  %101 = and i64 %100, -2
  %.val56 = load ptr, ptr %10, align 8
  %102 = ptrtoint ptr %.val52 to i64
  %103 = sub i64 %101, %102
  %104 = sdiv exact i64 %103, 12
  %105 = trunc i64 %104 to i32
  %106 = add nsw i32 %105, 1
  tail call fastcc void @Vec_IntFillExtra(ptr noundef %.val56, i32 noundef %106)
  %107 = getelementptr i8, ptr %.val56, i64 8
  %.val.i.i.i = load ptr, ptr %107, align 8
  %sext.i = shl i64 %104, 32
  %108 = ashr exact i64 %sext.i, 30
  %109 = getelementptr inbounds i8, ptr %.val.i.i.i, i64 %108
  %110 = load i32, ptr %109, align 4
  store i32 %110, ptr %50, align 8
  br label %111

111:                                              ; preds = %.thread59, %94, %96, %11, %53
  %indvars.iv.next = add nuw nsw i64 %indvars.iv, 1
  %112 = load ptr, ptr @s_DarLib, align 8
  %113 = getelementptr inbounds nuw i8, ptr %112, i64 10732
  %114 = getelementptr inbounds [222 x i32], ptr %113, i64 0, i64 %3
  %115 = load i32, ptr %114, align 4
  %116 = sext i32 %115 to i64
  %117 = icmp slt i64 %indvars.iv.next, %116
  br i1 %117, label %11, label %._crit_edge, !llvm.loop !43

._crit_edge:                                      ; preds = %111, %2
  ret void
}